target datalayout = "e-m:e-p270:32:32-p271:32:32-p272:64:64-i64:64-i128:128-f80:128-n8:16:32:64-S128"
target triple = "x86_64-pc-linux-gnu"

%struct._value_string_ext = type { ptr, i32, i32, ptr, ptr }
%struct.expert_field = type { i32, i32 }

@hf_hdr_name_value = internal global i32 0, align 4
@ei_wsp_oversized_uintvar = internal global %struct.expert_field zeroinitializer, align 4
@ei_wsp_header_invalid_value = internal global %struct.expert_field zeroinitializer, align 4
@hf_hdr_profile_warning = internal global i32 0, align 4
@ett_profile_warning = internal global i32 0, align 4
@.str.1152 = private unnamed_addr constant [16 x i8] c"Profile-warning\00", align 1
@vals_wsp_profile_warning_code_ext = internal global %struct._value_string_ext { ptr @_try_val_to_str_ext_init, i32 0, i32 7, ptr @vals_wsp_profile_warning_code, ptr @.str.1155 }, align 8
@.str.1153 = private unnamed_addr constant [12 x i8] c"; target=%s\00", align 1
@.str.1154 = private unnamed_addr constant [10 x i8] c"; date=%s\00", align 1

; Function Attrs: null_pointer_is_valid sspstrong uwtable
define internal i32 @wkh_profile_warning(ptr noundef %0, ptr noundef %1, i32 noundef %2, ptr noundef %3) #1 {
  %5 = alloca ptr, align 8
  %6 = alloca ptr, align 8
  %7 = alloca i32, align 4
  %8 = alloca ptr, align 8
  %9 = alloca i8, align 1
  %10 = alloca ptr, align 8
  %11 = alloca ptr, align 8
  %12 = alloca i32, align 4
  %13 = alloca i8, align 1
  %14 = alloca i32, align 4
  %15 = alloca i32, align 4
  %16 = alloca i32, align 4
  %17 = alloca ptr, align 8
  %18 = alloca i32, align 4
  %19 = alloca i32, align 4
  %20 = alloca i32, align 4
  %21 = alloca i8, align 1
  %22 = alloca ptr, align 8
  store ptr %0, ptr %5, align 8
  store ptr %1, ptr %6, align 8
  store i32 %2, ptr %7, align 4
  store ptr %3, ptr %8, align 8
  call void @llvm.lifetime.start.p0(i64 1, ptr %9) #8
  store i8 0, ptr %9, align 1
  call void @llvm.lifetime.start.p0(i64 8, ptr %10) #8
  call void @llvm.lifetime.start.p0(i64 8, ptr %11) #8
  call void @llvm.lifetime.start.p0(i64 4, ptr %12) #8
  %23 = load i32, ptr %7, align 4
  %24 = add i32 %23, 1
  store i32 %24, ptr %12, align 4
  call void @llvm.lifetime.start.p0(i64 1, ptr %13) #8
  %25 = load ptr, ptr %6, align 8
  %26 = load i32, ptr %12, align 4
  %27 = call zeroext i8 @tvb_get_uint8(ptr noundef %25, i32 noundef %26)
  store i8 %27, ptr %13, align 1
  call void @llvm.lifetime.start.p0(i64 4, ptr %14) #8
  %28 = load i32, ptr %12, align 4
  store i32 %28, ptr %14, align 4
  call void @llvm.lifetime.start.p0(i64 4, ptr %15) #8
  call void @llvm.lifetime.start.p0(i64 4, ptr %16) #8
  call void @llvm.lifetime.start.p0(i64 8, ptr %17) #8
  store ptr null, ptr %17, align 8
  call void @llvm.lifetime.start.p0(i64 4, ptr %18) #8
  call void @llvm.lifetime.start.p0(i64 4, ptr %19) #8
  call void @llvm.lifetime.start.p0(i64 4, ptr %20) #8
  store i32 0, ptr %20, align 4
  call void @llvm.lifetime.start.p0(i64 1, ptr %21) #8
  call void @llvm.lifetime.start.p0(i64 8, ptr %22) #8
  store ptr null, ptr %22, align 8
  %29 = load ptr, ptr %5, align 8
  %30 = load ptr, ptr %6, align 8
  %31 = load i32, ptr %7, align 4
  %32 = load i32, ptr %14, align 4
  %33 = load i32, ptr %7, align 4
  %34 = sub i32 %32, %33
  %35 = load i32, ptr @ett_profile_warning, align 4
  %36 = call ptr @proto_tree_add_subtree(ptr noundef %29, ptr noundef %30, i32 noundef %31, i32 noundef %34, i32 noundef %35, ptr noundef %11, ptr noundef @.str.1152)
  store ptr %36, ptr %10, align 8
  %37 = load ptr, ptr %10, align 8
  %38 = load i32, ptr @hf_hdr_name_value, align 4
  %39 = load ptr, ptr %6, align 8
  %40 = load i32, ptr %7, align 4
  %41 = call ptr @proto_tree_add_item(ptr noundef %37, i32 noundef %38, ptr noundef %39, i32 noundef %40, i32 noundef 1, i32 noundef 0)
  %42 = load i8, ptr %13, align 1
  %43 = zext i8 %42 to i32
  %44 = and i32 %43, 128
  %45 = icmp ne i32 %44, 0
  br i1 %45, label %46, label %67

46:                                               ; preds = %4
  %47 = load i32, ptr %14, align 4
  %48 = add i32 %47, 1
  store i32 %48, ptr %14, align 4
  %49 = load i8, ptr %13, align 1
  %50 = zext i8 %49 to i32
  %51 = and i32 %50, 127
  store i32 %51, ptr %20, align 4
  %52 = load i32, ptr %20, align 4
  %53 = call ptr @try_val_to_str_ext(i32 noundef %52, ptr noundef @vals_wsp_profile_warning_code_ext)
  store ptr %53, ptr %17, align 8
  %54 = load ptr, ptr %17, align 8
  %55 = icmp ne ptr %54, null
  br i1 %55, label %56, label %66

56:                                               ; preds = %46
  %57 = load ptr, ptr %5, align 8
  %58 = load i32, ptr @hf_hdr_profile_warning, align 4
  %59 = load ptr, ptr %6, align 8
  %60 = load i32, ptr %7, align 4
  %61 = load i32, ptr %14, align 4
  %62 = load i32, ptr %7, align 4
  %63 = sub i32 %61, %62
  %64 = load ptr, ptr %17, align 8
  %65 = call ptr @proto_tree_add_string(ptr noundef %57, i32 noundef %58, ptr noundef %59, i32 noundef %60, i32 noundef %63, ptr noundef %64)
  store i8 1, ptr %9, align 1
  br label %66

66:                                               ; preds = %56, %46
  br label %235

67:                                               ; preds = %4
  %68 = load i8, ptr %13, align 1
  %69 = zext i8 %68 to i32
  %70 = icmp eq i32 %69, 0
  br i1 %70, label %75, label %71

71:                                               ; preds = %67
  %72 = load i8, ptr %13, align 1
  %73 = zext i8 %72 to i32
  %74 = icmp sge i32 %73, 32
  br i1 %74, label %75, label %83

75:                                               ; preds = %71, %67
  %76 = call ptr @wmem_packet_scope()
  %77 = load ptr, ptr %6, align 8
  %78 = load i32, ptr %12, align 4
  %79 = call ptr @tvb_get_stringz_enc(ptr noundef %76, ptr noundef %77, i32 noundef %78, ptr noundef %15, i32 noundef 0)
  %80 = load i32, ptr %12, align 4
  %81 = load i32, ptr %15, align 4
  %82 = add i32 %80, %81
  store i32 %82, ptr %14, align 4
  br label %234

83:                                               ; preds = %71
  %84 = load i8, ptr %13, align 1
  %85 = zext i8 %84 to i32
  %86 = icmp eq i32 %85, 31
  br i1 %86, label %87, label %95

87:                                               ; preds = %83
  %88 = load ptr, ptr %6, align 8
  %89 = load i32, ptr %12, align 4
  %90 = add i32 %89, 1
  %91 = load ptr, ptr %8, align 8
  %92 = call i32 @tvb_get_uintvar(ptr noundef %88, i32 noundef %90, ptr noundef %16, ptr noundef %91, ptr noundef @ei_wsp_oversized_uintvar)
  store i32 %92, ptr %15, align 4
  %93 = load i32, ptr %16, align 4
  %94 = add i32 %93, 1
  store i32 %94, ptr %16, align 4
  br label %100

95:                                               ; preds = %83
  %96 = load ptr, ptr %6, align 8
  %97 = load i32, ptr %14, align 4
  %98 = call zeroext i8 @tvb_get_uint8(ptr noundef %96, i32 noundef %97)
  %99 = zext i8 %98 to i32
  store i32 %99, ptr %15, align 4
  store i32 1, ptr %16, align 4
  br label %100

100:                                              ; preds = %95, %87
  %101 = load i32, ptr %16, align 4
  %102 = load i32, ptr %15, align 4
  %103 = add i32 %101, %102
  %104 = load i32, ptr %14, align 4
  %105 = add i32 %104, %103
  store i32 %105, ptr %14, align 4
  %106 = load i32, ptr %12, align 4
  %107 = load i32, ptr %16, align 4
  %108 = add i32 %106, %107
  store i32 %108, ptr %18, align 4
  %109 = load ptr, ptr %6, align 8
  %110 = load i32, ptr %18, align 4
  %111 = add i32 %110, 1
  store i32 %111, ptr %18, align 4
  %112 = call zeroext i8 @tvb_get_uint8(ptr noundef %109, i32 noundef %110)
  store i8 %112, ptr %21, align 1
  %113 = load i8, ptr %21, align 1
  %114 = zext i8 %113 to i32
  %115 = and i32 %114, 128
  %116 = icmp ne i32 %115, 0
  br i1 %116, label %117, label %233

117:                                              ; preds = %100
  %118 = load i32, ptr %20, align 4
  %119 = call ptr @try_val_to_str_ext(i32 noundef %118, ptr noundef @vals_wsp_profile_warning_code_ext)
  store ptr %119, ptr %17, align 8
  %120 = load ptr, ptr %17, align 8
  %121 = icmp ne ptr %120, null
  br i1 %121, label %122, label %232

122:                                              ; preds = %117
  %123 = load ptr, ptr %5, align 8
  %124 = load i32, ptr @hf_hdr_profile_warning, align 4
  %125 = load ptr, ptr %6, align 8
  %126 = load i32, ptr %7, align 4
  %127 = load i32, ptr %14, align 4
  %128 = load i32, ptr %7, align 4
  %129 = sub i32 %127, %128
  %130 = load ptr, ptr %17, align 8
  %131 = call ptr @proto_tree_add_string(ptr noundef %123, i32 noundef %124, ptr noundef %125, i32 noundef %126, i32 noundef %129, ptr noundef %130)
  store ptr %131, ptr %22, align 8
  %132 = load ptr, ptr %6, align 8
  %133 = load i32, ptr %18, align 4
  %134 = call zeroext i8 @tvb_get_uint8(ptr noundef %132, i32 noundef %133)
  %135 = zext i8 %134 to i32
  %136 = icmp eq i32 %135, 0
  br i1 %136, label %149, label %137

137:                                              ; preds = %122
  %138 = load ptr, ptr %6, align 8
  %139 = load i32, ptr %18, align 4
  %140 = call zeroext i8 @tvb_get_uint8(ptr noundef %138, i32 noundef %139)
  %141 = zext i8 %140 to i32
  %142 = icmp sge i32 %141, 32
  br i1 %142, label %143, label %154

143:                                              ; preds = %137
  %144 = load ptr, ptr %6, align 8
  %145 = load i32, ptr %18, align 4
  %146 = call zeroext i8 @tvb_get_uint8(ptr noundef %144, i32 noundef %145)
  %147 = zext i8 %146 to i32
  %148 = icmp sle i32 %147, 127
  br i1 %148, label %149, label %154

149:                                              ; preds = %143, %122
  %150 = call ptr @wmem_packet_scope()
  %151 = load ptr, ptr %6, align 8
  %152 = load i32, ptr %18, align 4
  %153 = call ptr @tvb_get_stringz_enc(ptr noundef %150, ptr noundef %151, i32 noundef %152, ptr noundef %19, i32 noundef 0)
  store ptr %153, ptr %17, align 8
  store i8 1, ptr %9, align 1
  br label %155

154:                                              ; preds = %143, %137
  store i32 0, ptr %19, align 4
  store ptr null, ptr %17, align 8
  store i8 0, ptr %9, align 1
  br label %155

155:                                              ; preds = %154, %149
  %156 = load i8, ptr %9, align 1, !range !6, !noundef !7
  %157 = trunc i8 %156 to i1
  br i1 %157, label %158, label %231

158:                                              ; preds = %155
  %159 = load i32, ptr %19, align 4
  %160 = load i32, ptr %18, align 4
  %161 = add i32 %160, %159
  store i32 %161, ptr %18, align 4
  %162 = load ptr, ptr %22, align 8
  %163 = load ptr, ptr %17, align 8
  call void (ptr, ptr, ...) @proto_item_append_text(ptr noundef %162, ptr noundef @.str.1153, ptr noundef %163)
  br label %164

164:                                              ; preds = %229, %158
  %165 = load i8, ptr %9, align 1, !range !6, !noundef !7
  %166 = trunc i8 %165 to i1
  br i1 %166, label %167, label %171

167:                                              ; preds = %164
  %168 = load i32, ptr %18, align 4
  %169 = load i32, ptr %14, align 4
  %170 = icmp ult i32 %168, %169
  br label %171

171:                                              ; preds = %167, %164
  %172 = phi i1 [ false, %164 ], [ %170, %167 ]
  br i1 %172, label %173, label %230

173:                                              ; preds = %171
  %174 = load ptr, ptr %6, align 8
  %175 = load i32, ptr %18, align 4
  %176 = call zeroext i8 @tvb_get_uint8(ptr noundef %174, i32 noundef %175)
  %177 = zext i8 %176 to i32
  store i32 %177, ptr %19, align 4
  store i8 1, ptr %9, align 1
  %178 = load i32, ptr %19, align 4
  %179 = icmp eq i32 %178, 1
  br i1 %179, label %180, label %186

180:                                              ; preds = %173
  %181 = load ptr, ptr %6, align 8
  %182 = load i32, ptr %18, align 4
  %183 = add i32 %182, 1
  %184 = call zeroext i8 @tvb_get_uint8(ptr noundef %181, i32 noundef %183)
  %185 = zext i8 %184 to i32
  store i32 %185, ptr %20, align 4
  br label %215

186:                                              ; preds = %173
  %187 = load i32, ptr %19, align 4
  %188 = icmp eq i32 %187, 2
  br i1 %188, label %189, label %195

189:                                              ; preds = %186
  %190 = load ptr, ptr %6, align 8
  %191 = load i32, ptr %18, align 4
  %192 = add i32 %191, 1
  %193 = call zeroext i16 @tvb_get_ntohs(ptr noundef %190, i32 noundef %192)
  %194 = zext i16 %193 to i32
  store i32 %194, ptr %20, align 4
  br label %214

195:                                              ; preds = %186
  %196 = load i32, ptr %19, align 4
  %197 = icmp eq i32 %196, 3
  br i1 %197, label %198, label %203

198:                                              ; preds = %195
  %199 = load ptr, ptr %6, align 8
  %200 = load i32, ptr %18, align 4
  %201 = add i32 %200, 1
  %202 = call i32 @tvb_get_ntoh24(ptr noundef %199, i32 noundef %201)
  store i32 %202, ptr %20, align 4
  br label %213

203:                                              ; preds = %195
  %204 = load i32, ptr %19, align 4
  %205 = icmp eq i32 %204, 4
  br i1 %205, label %206, label %211

206:                                              ; preds = %203
  %207 = load ptr, ptr %6, align 8
  %208 = load i32, ptr %18, align 4
  %209 = add i32 %208, 1
  %210 = call i32 @tvb_get_ntohl(ptr noundef %207, i32 noundef %209)
  store i32 %210, ptr %20, align 4
  br label %212

211:                                              ; preds = %203
  store i8 0, ptr %9, align 1
  br label %212

212:                                              ; preds = %211, %206
  br label %213

213:                                              ; preds = %212, %198
  br label %214

214:                                              ; preds = %213, %189
  br label %215

215:                                              ; preds = %214, %180
  %216 = load i32, ptr %19, align 4
  %217 = add i32 %216, 1
  store i32 %217, ptr %19, align 4
  %218 = load i8, ptr %9, align 1, !range !6, !noundef !7
  %219 = trunc i8 %218 to i1
  br i1 %219, label %220, label %229

220:                                              ; preds = %215
  %221 = load i32, ptr %19, align 4
  %222 = load i32, ptr %18, align 4
  %223 = add i32 %222, %221
  store i32 %223, ptr %18, align 4
  %224 = load ptr, ptr %22, align 8
  %225 = call ptr @wmem_packet_scope()
  %226 = load i32, ptr %20, align 4
  %227 = zext i32 %226 to i64
  %228 = call ptr @abs_time_secs_to_str_ex(ptr noundef %225, i64 noundef %227, i32 noundef 18, i32 noundef 1)
  call void (ptr, ptr, ...) @proto_item_append_text(ptr noundef %224, ptr noundef @.str.1154, ptr noundef %228)
  br label %229

229:                                              ; preds = %220, %215
  br label %164, !llvm.loop !22

230:                                              ; preds = %171
  br label %231

231:                                              ; preds = %230, %155
  br label %232

232:                                              ; preds = %231, %117
  br label %233

233:                                              ; preds = %232, %100
  br label %234

234:                                              ; preds = %233, %75
  br label %235

235:                                              ; preds = %234, %66
  %236 = load i8, ptr %9, align 1, !range !6, !noundef !7
  %237 = trunc i8 %236 to i1
  br i1 %237, label %242, label %238

238:                                              ; preds = %235
  %239 = load ptr, ptr %8, align 8
  %240 = load ptr, ptr %11, align 8
  %241 = call ptr @expert_add_info(ptr noundef %239, ptr noundef %240, ptr noundef @ei_wsp_header_invalid_value)
  br label %242

242:                                              ; preds = %238, %235
  %243 = load i32, ptr %14, align 4
  call void @llvm.lifetime.end.p0(i64 8, ptr %22) #8
  call void @llvm.lifetime.end.p0(i64 1, ptr %21) #8
  call void @llvm.lifetime.end.p0(i64 4, ptr %20) #8
  call void @llvm.lifetime.end.p0(i64 4, ptr %19) #8
  call void @llvm.lifetime.end.p0(i64 4, ptr %18) #8
  call void @llvm.lifetime.end.p0(i64 8, ptr %17) #8
  call void @llvm.lifetime.end.p0(i64 4, ptr %16) #8
  call void @llvm.lifetime.end.p0(i64 4, ptr %15) #8
  call void @llvm.lifetime.end.p0(i64 4, ptr %14) #8
  call void @llvm.lifetime.end.p0(i64 1, ptr %13) #8
  call void @llvm.lifetime.end.p0(i64 4, ptr %12) #8
  call void @llvm.lifetime.end.p0(i64 8, ptr %11) #8
  call void @llvm.lifetime.end.p0(i64 8, ptr %10) #8
  call void @llvm.lifetime.end.p0(i64 1, ptr %9) #8
  ret i32 %243
}