; Function Attrs: null_pointer_is_valid sspstrong uwtable
define internal i32 @wkh_profile_warning(ptr noundef %0, ptr noundef %1, i32 noundef %2, ptr noundef %3) #1 {
  %5 = alloca ptr, align 8
  %6 = alloca i32, align 4
  %7 = alloca i32, align 4
  %8 = alloca i32, align 4
  call void @llvm.lifetime.start.p0(i64 8, ptr nonnull %5) #5
  %9 = add i32 %2, 1
  %10 = tail call zeroext i8 @tvb_get_uint8(ptr noundef %1, i32 noundef %9)
  call void @llvm.lifetime.start.p0(i64 4, ptr nonnull %6) #5
  call void @llvm.lifetime.start.p0(i64 4, ptr nonnull %7) #5
  call void @llvm.lifetime.start.p0(i64 4, ptr nonnull %8) #5
  %11 = load i32, ptr @ett_profile_warning, align 4
  %12 = call ptr @proto_tree_add_subtree(ptr noundef %0, ptr noundef %1, i32 noundef %2, i32 noundef 1, i32 noundef %11, ptr noundef nonnull %5, ptr noundef nonnull @.str.1152)
  %13 = load i32, ptr @hf_hdr_name_value, align 4
  %14 = call ptr @proto_tree_add_item(ptr noundef %12, i32 noundef %13, ptr noundef %1, i32 noundef %2, i32 noundef 1, i32 noundef 0)
  %.not = icmp sgt i8 %10, -1
  br i1 %.not, label %22, label %15

15:                                               ; preds = %4
  %16 = add i32 %2, 2
  %17 = and i8 %10, 127
  %18 = zext nneg i8 %17 to i32
  %19 = call ptr @try_val_to_str_ext(i32 noundef %18, ptr noundef nonnull @vals_wsp_profile_warning_code_ext)
  %.not92 = icmp eq ptr %19, null
  br i1 %.not92, label %.thread105, label %.thread110

.thread110:                                       ; preds = %15
  %20 = load i32, ptr @hf_hdr_profile_warning, align 4
  %21 = call ptr @proto_tree_add_string(ptr noundef %0, i32 noundef %20, ptr noundef %1, i32 noundef %2, i32 noundef 2, ptr noundef nonnull %19)
  br label %._crit_edge.thread

22:                                               ; preds = %4
  %23 = add nsw i8 %10, -32
  %or.cond = icmp ult i8 %23, -31
  br i1 %or.cond, label %24, label %29

24:                                               ; preds = %22
  %25 = call ptr @wmem_packet_scope()
  %26 = call ptr @tvb_get_stringz_enc(ptr noundef %25, ptr noundef %1, i32 noundef %9, ptr noundef nonnull %6, i32 noundef 0)
  %27 = load i32, ptr %6, align 4
  %28 = add i32 %27, %9
  br label %.thread105

29:                                               ; preds = %22
  %30 = icmp eq i8 %10, 31
  br i1 %30, label %31, label %36

31:                                               ; preds = %29
  %32 = add i32 %2, 2
  %33 = call i32 @tvb_get_uintvar(ptr noundef %1, i32 noundef %32, ptr noundef nonnull %7, ptr noundef %3, ptr noundef nonnull @ei_wsp_oversized_uintvar)
  %34 = load i32, ptr %7, align 4
  %35 = add i32 %34, 1
  br label %39

36:                                               ; preds = %29
  %37 = call zeroext i8 @tvb_get_uint8(ptr noundef %1, i32 noundef %9)
  %38 = zext i8 %37 to i32
  br label %39

39:                                               ; preds = %36, %31
  %.sink = phi i32 [ %33, %31 ], [ %38, %36 ]
  %storemerge = phi i32 [ %35, %31 ], [ 1, %36 ]
  store i32 %.sink, ptr %6, align 4
  store i32 %storemerge, ptr %7, align 4
  %40 = add i32 %storemerge, %9
  %41 = add i32 %40, %.sink
  %42 = add i32 %40, 1
  %43 = call zeroext i8 @tvb_get_uint8(ptr noundef %1, i32 noundef %40)
  %.not90 = icmp sgt i8 %43, -1
  br i1 %.not90, label %.thread105, label %44

44:                                               ; preds = %39
  %45 = call ptr @try_val_to_str_ext(i32 noundef 0, ptr noundef nonnull @vals_wsp_profile_warning_code_ext)
  %.not91 = icmp eq ptr %45, null
  br i1 %.not91, label %.thread105, label %46

46:                                               ; preds = %44
  %47 = load i32, ptr @hf_hdr_profile_warning, align 4
  %48 = sub i32 %41, %2
  %49 = call ptr @proto_tree_add_string(ptr noundef %0, i32 noundef %47, ptr noundef %1, i32 noundef %2, i32 noundef %48, ptr noundef nonnull %45)
  %50 = call zeroext i8 @tvb_get_uint8(ptr noundef %1, i32 noundef %42)
  %51 = icmp eq i8 %50, 0
  br i1 %51, label %59, label %52

52:                                               ; preds = %46
  %53 = call zeroext i8 @tvb_get_uint8(ptr noundef %1, i32 noundef %42)
  %54 = icmp ugt i8 %53, 31
  br i1 %54, label %55, label %58

55:                                               ; preds = %52
  %56 = call zeroext i8 @tvb_get_uint8(ptr noundef %1, i32 noundef %42)
  %57 = icmp sgt i8 %56, -1
  br i1 %57, label %59, label %58

58:                                               ; preds = %52, %55
  store i32 0, ptr %8, align 4
  br label %.thread105

59:                                               ; preds = %46, %55
  %60 = call ptr @wmem_packet_scope()
  %61 = call ptr @tvb_get_stringz_enc(ptr noundef %60, ptr noundef %1, i32 noundef %42, ptr noundef nonnull %8, i32 noundef 0)
  %62 = load i32, ptr %8, align 4
  %63 = add i32 %62, %42
  call void (ptr, ptr, ...) @proto_item_append_text(ptr noundef %49, ptr noundef nonnull @.str.1153, ptr noundef %61)
  %64 = icmp ult i32 %63, %41
  br i1 %64, label %.lr.ph, label %._crit_edge.thread

.lr.ph:                                           ; preds = %59, %81
  %.082113 = phi i32 [ %84, %81 ], [ %63, %59 ]
  %65 = call zeroext i8 @tvb_get_uint8(ptr noundef %1, i32 noundef %.082113)
  %66 = zext i8 %65 to i32
  store i32 %66, ptr %8, align 4
  switch i8 %65, label %._crit_edge [
    i8 1, label %67
    i8 2, label %71
    i8 3, label %75
    i8 4, label %78
  ]

67:                                               ; preds = %.lr.ph
  %68 = add nuw i32 %.082113, 1
  %69 = call zeroext i8 @tvb_get_uint8(ptr noundef %1, i32 noundef %68)
  %70 = zext i8 %69 to i32
  br label %81

71:                                               ; preds = %.lr.ph
  %72 = add nuw i32 %.082113, 1
  %73 = call zeroext i16 @tvb_get_ntohs(ptr noundef %1, i32 noundef %72)
  %74 = zext i16 %73 to i32
  br label %81

75:                                               ; preds = %.lr.ph
  %76 = add nuw i32 %.082113, 1
  %77 = call i32 @tvb_get_ntoh24(ptr noundef %1, i32 noundef %76)
  br label %81

78:                                               ; preds = %.lr.ph
  %79 = add nuw i32 %.082113, 1
  %80 = call i32 @tvb_get_ntohl(ptr noundef %1, i32 noundef %79)
  br label %81

81:                                               ; preds = %78, %75, %71, %67
  %.181.ph = phi i32 [ %80, %78 ], [ %77, %75 ], [ %74, %71 ], [ %70, %67 ]
  %82 = load i32, ptr %8, align 4
  %83 = add i32 %82, 1
  store i32 %83, ptr %8, align 4
  %84 = add i32 %83, %.082113
  %85 = call ptr @wmem_packet_scope()
  %86 = zext i32 %.181.ph to i64
  %87 = call ptr @abs_time_secs_to_str_ex(ptr noundef %85, i64 noundef %86, i32 noundef 18, i32 noundef 1)
  call void (ptr, ptr, ...) @proto_item_append_text(ptr noundef %49, ptr noundef nonnull @.str.1154, ptr noundef %87)
  %88 = icmp ult i32 %84, %41
  br i1 %88, label %.lr.ph, label %._crit_edge.thread, !llvm.loop !20

._crit_edge:                                      ; preds = %.lr.ph
  %89 = add nuw nsw i32 %66, 1
  store i32 %89, ptr %8, align 4
  br label %.thread105

.thread105:                                       ; preds = %._crit_edge, %39, %44, %58, %24, %15
  %.085108 = phi i32 [ %41, %._crit_edge ], [ %41, %39 ], [ %41, %44 ], [ %41, %58 ], [ %28, %24 ], [ %16, %15 ]
  %90 = load ptr, ptr %5, align 8
  %91 = call ptr @expert_add_info(ptr noundef %3, ptr noundef %90, ptr noundef nonnull @ei_wsp_header_invalid_value)
  br label %._crit_edge.thread

._crit_edge.thread:                               ; preds = %81, %59, %.thread110, %.thread105
  %.085109 = phi i32 [ %.085108, %.thread105 ], [ %16, %.thread110 ], [ %41, %59 ], [ %41, %81 ]
  call void @llvm.lifetime.end.p0(i64 4, ptr nonnull %8) #5
  call void @llvm.lifetime.end.p0(i64 4, ptr nonnull %7) #5
  call void @llvm.lifetime.end.p0(i64 4, ptr nonnull %6) #5
  call void @llvm.lifetime.end.p0(i64 8, ptr nonnull %5) #5
  ret i32 %.085109
}